target datalayout = "e-m:e-p270:32:32-p271:32:32-p272:64:64-i64:64-i128:128-f80:128-n8:16:32:64-S128"
target triple = "x86_64-pc-linux-gnu"

%"class.sat::literal" = type { i32 }
%"class.pb::card" = type { %"class.pb::constraint", [0 x %"class.sat::literal"] }
%"class.pb::constraint" = type { ptr, i32, i8, %"class.sat::literal", %"class.sat::literal", i32, i32, i32, i64, i8, i32, i8, i32 }
%class.vector = type { ptr }
%"class.sat::simplifier" = type { ptr, i32, %"class.sat::use_list", %"class.sat::ext_use_list", %"class.sat::clause_set", %class.svector.7, i32, %class.tracked_uint_set, i8, %"class.sat::tmp_clause", %class.svector.9, i32, i32, i8, i8, i8, i8, i32, i8, i8, i32, i8, i32, i8, i8, i32, i32, i32, i32, i32, i32, i32, i32, i32, i32, i8, i32, i8, i8, i32, i32, i32, i32, i32, i32, i32, i32, i32, i32, i32, i8, i32, %class.ptr_vector, %class.svector, %class.svector.11, %class.svector.11, %class.svector }
%"class.sat::use_list" = type { %class.vector.3 }
%class.vector.3 = type { ptr }
%"class.sat::ext_use_list" = type { %class.vector.2 }
%class.vector.2 = type { ptr }
%"class.sat::clause_set" = type { %class.svector.4, %class.ptr_vector }
%class.svector.4 = type { %class.vector.5 }
%class.vector.5 = type { ptr }
%class.svector.7 = type { %class.vector.8 }
%class.vector.8 = type { ptr }
%class.tracked_uint_set = type { %class.svector.9, %class.svector.4 }
%"class.sat::tmp_clause" = type { ptr }
%class.svector.9 = type { %class.vector.10 }
%class.vector.10 = type { ptr }
%class.ptr_vector = type { %class.vector.6 }
%class.vector.6 = type { ptr }
%class.svector.11 = type { %class.vector.12 }
%class.vector.12 = type { ptr }
%class.svector = type { %class.vector }

; Function Attrs: mustprogress nounwind uwtable
define linkonce_odr hidden noundef nonnull align 1 dereferenceable(1) ptr @_ZNK6vectorIcLb0EjEixEj(ptr noundef nonnull align 8 dereferenceable(8) %0, i32 noundef %1) #6 comdat align 2 {
  %3 = alloca ptr, align 8
  %4 = alloca i32, align 4
  store ptr %0, ptr %3, align 8, !tbaa !131
  store i32 %1, ptr %4, align 4, !tbaa !8
  %5 = load ptr, ptr %3, align 8
  %6 = getelementptr inbounds nuw %class.vector.10, ptr %5, i32 0, i32 0
  %7 = load ptr, ptr %6, align 8, !tbaa !133
  %8 = load i32, ptr %4, align 4, !tbaa !8
  %9 = zext i32 %8 to i64
  %10 = getelementptr inbounds nuw i8, ptr %7, i64 %9
  ret ptr %10
}

; Function Attrs: mustprogress nounwind uwtable
define linkonce_odr hidden noundef i32 @_ZNK3sat7literal5indexEv(ptr noundef nonnull align 4 dereferenceable(4) %0) #6 comdat align 2 {
  %2 = alloca ptr, align 8
  store ptr %0, ptr %2, align 8, !tbaa !42
  %3 = load ptr, ptr %2, align 8
  %4 = getelementptr inbounds nuw %"class.sat::literal", ptr %3, i32 0, i32 0
  %5 = load i32, ptr %4, align 4, !tbaa !43
  ret i32 %5
}

; Function Attrs: mustprogress nounwind uwtable
define linkonce_odr hidden noundef i32 @_ZNK2pb10constraint1kEv(ptr noundef nonnull align 8 dereferenceable(64) %0) #6 comdat align 2 {
  %2 = alloca ptr, align 8
  store ptr %0, ptr %2, align 8, !tbaa !22
  %3 = load ptr, ptr %2, align 8
  %4 = getelementptr inbounds nuw %"class.pb::constraint", ptr %3, i32 0, i32 12
  %5 = load i32, ptr %4, align 4, !tbaa !40
  ret i32 %5
}

; Function Attrs: mustprogress uwtable
define linkonce_odr hidden noundef zeroext i1 @_ZNK3sat10simplifier9is_markedENS_7literalE(ptr noundef nonnull align 8 dereferenceable(288) %0, i32 %1) #4 comdat align 2 {
  %3 = alloca %"class.sat::literal", align 4
  %4 = alloca ptr, align 8
  %5 = getelementptr inbounds nuw %"class.sat::literal", ptr %3, i32 0, i32 0
  store i32 %1, ptr %5, align 4
  store ptr %0, ptr %4, align 8, !tbaa !86
  %6 = load ptr, ptr %4, align 8
  %7 = getelementptr inbounds nuw %"class.sat::simplifier", ptr %6, i32 0, i32 10
  %8 = call noundef i32 @_ZNK3sat7literal5indexEv(ptr noundef nonnull align 4 dereferenceable(4) %3)
  %9 = call noundef nonnull align 1 dereferenceable(1) ptr @_ZNK6vectorIcLb0EjEixEj(ptr noundef nonnull align 8 dereferenceable(8) %7, i32 noundef %8)
  %10 = load i8, ptr %9, align 1, !tbaa !88
  %11 = sext i8 %10 to i32
  %12 = icmp ne i32 %11, 0
  ret i1 %12
}

; Function Attrs: mustprogress nounwind uwtable
define linkonce_odr hidden i32 @_ZN3satcoENS_7literalE(i32 %0) #6 comdat {
  %2 = alloca %"class.sat::literal", align 4
  %3 = alloca %"class.sat::literal", align 4
  %4 = getelementptr inbounds nuw %"class.sat::literal", ptr %3, i32 0, i32 0
  store i32 %0, ptr %4, align 4
  %5 = getelementptr inbounds nuw %"class.sat::literal", ptr %3, i32 0, i32 0
  %6 = load i32, ptr %5, align 4, !tbaa !43
  %7 = xor i32 %6, 1
  %8 = getelementptr inbounds nuw %"class.sat::literal", ptr %3, i32 0, i32 0
  store i32 %7, ptr %8, align 4, !tbaa !43
  call void @llvm.memcpy.p0.p0.i64(ptr align 4 %2, ptr align 4 %3, i64 4, i1 false), !tbaa.struct !12
  %9 = getelementptr inbounds nuw %"class.sat::literal", ptr %2, i32 0, i32 0
  %10 = load i32, ptr %9, align 4
  ret i32 %10
}

; Function Attrs: mustprogress nounwind uwtable
define linkonce_odr hidden noundef ptr @_ZNK2pb4card3endEv(ptr noundef nonnull align 8 dereferenceable(64) %0) #6 comdat align 2 {
  %2 = alloca ptr, align 8
  store ptr %0, ptr %2, align 8, !tbaa !3
  %3 = load ptr, ptr %2, align 8
  %4 = getelementptr inbounds nuw %"class.pb::card", ptr %3, i32 0, i32 1
  %5 = getelementptr inbounds [0 x %"class.sat::literal"], ptr %4, i64 0, i64 0
  %6 = getelementptr inbounds nuw %"class.pb::constraint", ptr %3, i32 0, i32 7
  %7 = load i32, ptr %6, align 8, !tbaa !35
  %8 = zext i32 %7 to i64
  %9 = getelementptr inbounds nuw %"class.sat::literal", ptr %5, i64 %8
  ret ptr %9
}

; Function Attrs: mustprogress nounwind uwtable
define linkonce_odr hidden noundef ptr @_ZNK2pb4card5beginEv(ptr noundef nonnull align 8 dereferenceable(64) %0) #6 comdat align 2 {
  %2 = alloca ptr, align 8
  store ptr %0, ptr %2, align 8, !tbaa !3
  %3 = load ptr, ptr %2, align 8
  %4 = getelementptr inbounds nuw %"class.pb::card", ptr %3, i32 0, i32 1
  %5 = getelementptr inbounds [0 x %"class.sat::literal"], ptr %4, i64 0, i64 0
  ret ptr %5
}

; Function Attrs: mustprogress uwtable
define hidden noundef zeroext i1 @_ZNK2pb4card10is_blockedERN3sat10simplifierENS1_7literalE(ptr noundef nonnull align 8 dereferenceable(64) %0, ptr noundef nonnull align 8 dereferenceable(288) %1, i32 %2) unnamed_addr #4 align 2 {
  %4 = alloca %"class.sat::literal", align 4
  %5 = alloca ptr, align 8
  %6 = alloca ptr, align 8
  %7 = alloca i32, align 4
  %8 = alloca ptr, align 8
  %9 = alloca ptr, align 8
  %10 = alloca ptr, align 8
  %11 = alloca %"class.sat::literal", align 4
  %12 = alloca %"class.sat::literal", align 4
  %13 = alloca %"class.sat::literal", align 4
  %14 = getelementptr inbounds nuw %"class.sat::literal", ptr %4, i32 0, i32 0
  store i32 %2, ptr %14, align 4
  store ptr %0, ptr %5, align 8, !tbaa !3
  store ptr %1, ptr %6, align 8, !tbaa !86
  %15 = load ptr, ptr %5, align 8
  call void @llvm.lifetime.start.p0(i64 4, ptr %7) #3
  store i32 0, ptr %7, align 4, !tbaa !8
  call void @llvm.lifetime.start.p0(i64 8, ptr %8) #3
  store ptr %15, ptr %8, align 8, !tbaa !3
  call void @llvm.lifetime.start.p0(i64 8, ptr %9) #3
  %16 = load ptr, ptr %8, align 8, !tbaa !3
  %17 = call noundef ptr @_ZNK2pb4card5beginEv(ptr noundef nonnull align 8 dereferenceable(64) %16)
  store ptr %17, ptr %9, align 8, !tbaa !42
  call void @llvm.lifetime.start.p0(i64 8, ptr %10) #3
  %18 = load ptr, ptr %8, align 8, !tbaa !3
  %19 = call noundef ptr @_ZNK2pb4card3endEv(ptr noundef nonnull align 8 dereferenceable(64) %18)
  store ptr %19, ptr %10, align 8, !tbaa !42
  br label %20

20:                                               ; preds = %39, %3
  %21 = load ptr, ptr %9, align 8, !tbaa !42
  %22 = load ptr, ptr %10, align 8, !tbaa !42
  %23 = icmp ne ptr %21, %22
  br i1 %23, label %25, label %24

24:                                               ; preds = %20
  call void @llvm.lifetime.end.p0(i64 8, ptr %10) #3
  call void @llvm.lifetime.end.p0(i64 8, ptr %9) #3
  call void @llvm.lifetime.end.p0(i64 8, ptr %8) #3
  br label %42

25:                                               ; preds = %20
  call void @llvm.lifetime.start.p0(i64 4, ptr %11) #3
  %26 = load ptr, ptr %9, align 8, !tbaa !42
  call void @llvm.memcpy.p0.p0.i64(ptr align 4 %11, ptr align 4 %26, i64 4, i1 false), !tbaa.struct !12
  %27 = load ptr, ptr %6, align 8, !tbaa !86
  call void @llvm.memcpy.p0.p0.i64(ptr align 4 %13, ptr align 4 %11, i64 4, i1 false), !tbaa.struct !12
  %28 = getelementptr inbounds nuw %"class.sat::literal", ptr %13, i32 0, i32 0
  %29 = load i32, ptr %28, align 4
  %30 = call i32 @_ZN3satcoENS_7literalE(i32 %29)
  %31 = getelementptr inbounds nuw %"class.sat::literal", ptr %12, i32 0, i32 0
  store i32 %30, ptr %31, align 4
  %32 = getelementptr inbounds nuw %"class.sat::literal", ptr %12, i32 0, i32 0
  %33 = load i32, ptr %32, align 4
  %34 = call noundef zeroext i1 @_ZNK3sat10simplifier9is_markedENS_7literalE(ptr noundef nonnull align 8 dereferenceable(288) %27, i32 %33)
  br i1 %34, label %35, label %38

35:                                               ; preds = %25
  %36 = load i32, ptr %7, align 4, !tbaa !8
  %37 = add i32 %36, 1
  store i32 %37, ptr %7, align 4, !tbaa !8
  br label %38

38:                                               ; preds = %35, %25
  call void @llvm.lifetime.end.p0(i64 4, ptr %11) #3
  br label %39

39:                                               ; preds = %38
  %40 = load ptr, ptr %9, align 8, !tbaa !42
  %41 = getelementptr inbounds nuw %"class.sat::literal", ptr %40, i32 1
  store ptr %41, ptr %9, align 8, !tbaa !42
  br label %20

42:                                               ; preds = %24
  %43 = load i32, ptr %7, align 4, !tbaa !8
  %44 = call noundef i32 @_ZNK2pb10constraint1kEv(ptr noundef nonnull align 8 dereferenceable(64) %15)
  %45 = icmp uge i32 %43, %44
  call void @llvm.lifetime.end.p0(i64 4, ptr %7) #3
  ret i1 %45
}