; Function Attrs: mustprogress nofree norecurse nosync nounwind willreturn memory(read, inaccessiblemem: none) uwtable
define hidden noundef zeroext i1 @_ZNK2pb4card10is_blockedERN3sat10simplifierENS1_7literalE(ptr noundef nonnull readonly align 8 captures(address) dereferenceable(64) %0, ptr noundef nonnull readonly align 8 captures(none) dereferenceable(288) %1, i32 %2) unnamed_addr #10 align 2 {
  %4 = getelementptr inbounds nuw i8, ptr %0, i64 32
  %5 = load i32, ptr %4, align 8, !tbaa !20
  %6 = zext i32 %5 to i64
  %.idx = shl nuw nsw i64 %6, 2
  %7 = getelementptr inbounds nuw i8, ptr %0, i64 %.idx
  %.ptr17 = getelementptr inbounds nuw i8, ptr %7, i64 64
  %.not14 = icmp eq i32 %5, 0
  br i1 %.not14, label %._crit_edge, label %.lr.ph

.lr.ph:                                           ; preds = %3
  %.ptr = getelementptr inbounds nuw i8, ptr %0, i64 64
  %8 = getelementptr inbounds nuw i8, ptr %1, i64 96
  %9 = load ptr, ptr %8, align 8, !tbaa !68
  br label %13

._crit_edge:                                      ; preds = %13, %3
  %.0.lcssa = phi i32 [ 0, %3 ], [ %spec.select, %13 ]
  %10 = getelementptr inbounds nuw i8, ptr %0, i64 60
  %11 = load i32, ptr %10, align 4, !tbaa !25
  %12 = icmp uge i32 %.0.lcssa, %11
  ret i1 %12

13:                                               ; preds = %.lr.ph, %13
  %.016 = phi i32 [ 0, %.lr.ph ], [ %spec.select, %13 ]
  %.01215 = phi ptr [ %.ptr, %.lr.ph ], [ %19, %13 ]
  %.sroa.02.0.copyload = load i32, ptr %.01215, align 4, !tbaa !9
  %14 = xor i32 %.sroa.02.0.copyload, 1
  %15 = zext i32 %14 to i64
  %16 = getelementptr inbounds nuw i8, ptr %9, i64 %15
  %17 = load i8, ptr %16, align 1, !tbaa !70
  %.not13 = icmp ne i8 %17, 0
  %18 = zext i1 %.not13 to i32
  %spec.select = add i32 %.016, %18
  %19 = getelementptr inbounds nuw i8, ptr %.01215, i64 4
  %.not = icmp eq ptr %19, %.ptr17
  br i1 %.not, label %._crit_edge, label %13
}